; ModuleID = 'source-C-CXX/12/77.cpp'
source_filename = "source-C-CXX/12/77.cpp"
target datalayout = "e-m:e-p270:32:32-p271:32:32-p272:64:64-i64:64-f80:128-n8:16:32:64-S128"
target triple = "x86_64-pc-linux-gnu"

%"class.std::ios_base::Init" = type { i8 }
%"class.std::basic_istream" = type { i32 (...)**, i64, %"class.std::basic_ios" }
%"class.std::basic_ios" = type { %"class.std::ios_base", %"class.std::basic_ostream"*, i8, i8, %"class.std::basic_streambuf"*, %"class.std::ctype"*, %"class.std::num_put"*, %"class.std::num_get"* }
%"class.std::ios_base" = type { i32 (...)**, i64, i64, i32, i32, i32, %"struct.std::ios_base::_Callback_list"*, %"struct.std::ios_base::_Words", [8 x %"struct.std::ios_base::_Words"], i32, %"struct.std::ios_base::_Words"*, %"class.std::locale" }
%"struct.std::ios_base::_Callback_list" = type { %"struct.std::ios_base::_Callback_list"*, void (i32, %"class.std::ios_base"*, i32)*, i32, i32 }
%"struct.std::ios_base::_Words" = type { i8*, i64 }
%"class.std::locale" = type { %"class.std::locale::_Impl"* }
%"class.std::locale::_Impl" = type { i32, %"class.std::locale::facet"**, i64, %"class.std::locale::facet"**, i8** }
%"class.std::locale::facet" = type <{ i32 (...)**, i32, [4 x i8] }>
%"class.std::basic_ostream" = type { i32 (...)**, %"class.std::basic_ios" }
%"class.std::basic_streambuf" = type { i32 (...)**, i8*, i8*, i8*, i8*, i8*, i8*, %"class.std::locale" }
%"class.std::ctype" = type <{ %"class.std::locale::facet.base", [4 x i8], %struct.__locale_struct*, i8, [7 x i8], i32*, i32*, i16*, i8, [256 x i8], [256 x i8], i8, [6 x i8] }>
%"class.std::locale::facet.base" = type <{ i32 (...)**, i32 }>
%struct.__locale_struct = type { [13 x %struct.__locale_data*], i16*, i32*, i32*, [13 x i8*] }
%struct.__locale_data = type opaque
%"class.std::num_put" = type { %"class.std::locale::facet.base", [4 x i8] }
%"class.std::num_get" = type { %"class.std::locale::facet.base", [4 x i8] }

@_ZStL8__ioinit = internal global %"class.std::ios_base::Init" zeroinitializer, align 1
@__dso_handle = external hidden global i8
@_ZSt3cin = external global %"class.std::basic_istream", align 8
@_ZSt4cout = external global %"class.std::basic_ostream", align 8
@.str = private unnamed_addr constant [2 x i8] c" \00", align 1
@llvm.global_ctors = appending global [1 x { i32, void ()*, i8* }] [{ i32, void ()*, i8* } { i32 65535, void ()* @_GLOBAL__sub_I_77.cpp, i8* null }]

declare void @_ZNSt8ios_base4InitC1Ev(%"class.std::ios_base::Init"* nonnull align 1 dereferenceable(1)) unnamed_addr #0

; Function Attrs: nounwind
declare void @_ZNSt8ios_base4InitD1Ev(%"class.std::ios_base::Init"* nonnull align 1 dereferenceable(1)) unnamed_addr #1

; Function Attrs: nofree nounwind
declare i32 @__cxa_atexit(void (i8*)*, i8*, i8*) local_unnamed_addr #2

; Function Attrs: mustprogress norecurse sspstrong uwtable
define dso_local i32 @main() local_unnamed_addr #3 {
  %1 = alloca i32, align 4
  %2 = alloca [20000 x i32], align 16
  %3 = bitcast i32* %1 to i8*
  call void @llvm.lifetime.start.p0i8(i64 4, i8* nonnull %3) #6
  %4 = bitcast [20000 x i32]* %2 to i8*
  call void @llvm.lifetime.start.p0i8(i64 80000, i8* nonnull %4) #6
  %5 = call nonnull align 8 dereferenceable(16) %"class.std::basic_istream"* @_ZNSirsERi(%"class.std::basic_istream"* nonnull align 8 dereferenceable(16) @_ZSt3cin, i32* nonnull align 4 dereferenceable(4) %1)
  %6 = load i32, i32* %1, align 4, !tbaa !5
  %7 = icmp sgt i32 %6, 0
  br i1 %7, label %8, label %86

8:                                                ; preds = %0, %8
  %9 = phi i64 [ %12, %8 ], [ 0, %0 ]
  %10 = getelementptr inbounds [20000 x i32], [20000 x i32]* %2, i64 0, i64 %9
  %11 = call nonnull align 8 dereferenceable(16) %"class.std::basic_istream"* @_ZNSirsERi(%"class.std::basic_istream"* nonnull align 8 dereferenceable(16) @_ZSt3cin, i32* nonnull align 4 dereferenceable(4) %10)
  %12 = add nuw nsw i64 %9, 1
  %13 = load i32, i32* %1, align 4, !tbaa !5
  %14 = sext i32 %13 to i64
  %15 = icmp slt i64 %12, %14
  br i1 %15, label %8, label %16, !llvm.loop !9

16:                                               ; preds = %8
  %17 = icmp sgt i32 %13, 1
  br i1 %17, label %18, label %79

18:                                               ; preds = %16
  %19 = zext i32 %13 to i64
  br label %20

20:                                               ; preds = %18, %53
  %21 = phi i64 [ 0, %18 ], [ %56, %53 ]
  %22 = phi i64 [ 1, %18 ], [ %54, %53 ]
  %23 = add i64 %21, 1
  %24 = getelementptr inbounds [20000 x i32], [20000 x i32]* %2, i64 0, i64 %22
  %25 = load i32, i32* %24, align 4, !tbaa !5
  %26 = and i64 %23, 1
  %27 = icmp eq i64 %21, 0
  br i1 %27, label %44, label %28

28:                                               ; preds = %20
  %29 = and i64 %23, -2
  br label %30

30:                                               ; preds = %88, %28
  %31 = phi i32 [ %25, %28 ], [ %89, %88 ]
  %32 = phi i64 [ 0, %28 ], [ %90, %88 ]
  %33 = phi i64 [ %29, %28 ], [ %91, %88 ]
  %34 = getelementptr inbounds [20000 x i32], [20000 x i32]* %2, i64 0, i64 %32
  %35 = load i32, i32* %34, align 8, !tbaa !5
  %36 = icmp eq i32 %31, %35
  br i1 %36, label %37, label %38

37:                                               ; preds = %30
  store i32 0, i32* %24, align 4, !tbaa !5
  br label %38

38:                                               ; preds = %30, %37
  %39 = phi i32 [ %31, %30 ], [ 0, %37 ]
  %40 = or i64 %32, 1
  %41 = getelementptr inbounds [20000 x i32], [20000 x i32]* %2, i64 0, i64 %40
  %42 = load i32, i32* %41, align 4, !tbaa !5
  %43 = icmp eq i32 %39, %42
  br i1 %43, label %87, label %88

44:                                               ; preds = %88, %20
  %45 = phi i32 [ %25, %20 ], [ %89, %88 ]
  %46 = phi i64 [ 0, %20 ], [ %90, %88 ]
  %47 = icmp eq i64 %26, 0
  br i1 %47, label %53, label %48

48:                                               ; preds = %44
  %49 = getelementptr inbounds [20000 x i32], [20000 x i32]* %2, i64 0, i64 %46
  %50 = load i32, i32* %49, align 4, !tbaa !5
  %51 = icmp eq i32 %45, %50
  br i1 %51, label %52, label %53

52:                                               ; preds = %48
  store i32 0, i32* %24, align 4, !tbaa !5
  br label %53

53:                                               ; preds = %52, %48, %44
  %54 = add nuw nsw i64 %22, 1
  %55 = icmp eq i64 %54, %19
  %56 = add i64 %21, 1
  br i1 %55, label %57, label %20, !llvm.loop !11

57:                                               ; preds = %53
  %58 = getelementptr inbounds [20000 x i32], [20000 x i32]* %2, i64 0, i64 0
  %59 = load i32, i32* %58, align 16, !tbaa !5
  %60 = call nonnull align 8 dereferenceable(8) %"class.std::basic_ostream"* @_ZNSolsEi(%"class.std::basic_ostream"* nonnull align 8 dereferenceable(8) @_ZSt4cout, i32 %59)
  %61 = load i32, i32* %1, align 4, !tbaa !5
  %62 = icmp sgt i32 %61, 1
  br i1 %62, label %63, label %79

63:                                               ; preds = %57, %74
  %64 = phi i32 [ %75, %74 ], [ %61, %57 ]
  %65 = phi i64 [ %76, %74 ], [ 1, %57 ]
  %66 = getelementptr inbounds [20000 x i32], [20000 x i32]* %2, i64 0, i64 %65
  %67 = load i32, i32* %66, align 4, !tbaa !5
  %68 = icmp eq i32 %67, 0
  br i1 %68, label %74, label %69

69:                                               ; preds = %63
  %70 = call nonnull align 8 dereferenceable(8) %"class.std::basic_ostream"* @_ZSt16__ostream_insertIcSt11char_traitsIcEERSt13basic_ostreamIT_T0_ES6_PKS3_l(%"class.std::basic_ostream"* nonnull align 8 dereferenceable(8) @_ZSt4cout, i8* nonnull getelementptr inbounds ([2 x i8], [2 x i8]* @.str, i64 0, i64 0), i64 1)
  %71 = load i32, i32* %66, align 4, !tbaa !5
  %72 = call nonnull align 8 dereferenceable(8) %"class.std::basic_ostream"* @_ZNSolsEi(%"class.std::basic_ostream"* nonnull align 8 dereferenceable(8) @_ZSt4cout, i32 %71)
  %73 = load i32, i32* %1, align 4, !tbaa !5
  br label %74

74:                                               ; preds = %63, %69
  %75 = phi i32 [ %64, %63 ], [ %73, %69 ]
  %76 = add nuw nsw i64 %65, 1
  %77 = sext i32 %75 to i64
  %78 = icmp slt i64 %76, %77
  br i1 %78, label %63, label %79, !llvm.loop !12

79:                                               ; preds = %74, %57, %16
  %80 = phi i32 [ %13, %16 ], [ %61, %57 ], [ %75, %74 ]
  %81 = icmp eq i32 %80, 1
  br i1 %81, label %82, label %86

82:                                               ; preds = %79
  %83 = getelementptr inbounds [20000 x i32], [20000 x i32]* %2, i64 0, i64 0
  %84 = load i32, i32* %83, align 16, !tbaa !5
  %85 = call nonnull align 8 dereferenceable(8) %"class.std::basic_ostream"* @_ZNSolsEi(%"class.std::basic_ostream"* nonnull align 8 dereferenceable(8) @_ZSt4cout, i32 %84)
  br label %86

86:                                               ; preds = %0, %82, %79
  call void @llvm.lifetime.end.p0i8(i64 80000, i8* nonnull %4) #6
  call void @llvm.lifetime.end.p0i8(i64 4, i8* nonnull %3) #6
  ret i32 0

87:                                               ; preds = %38
  store i32 0, i32* %24, align 4, !tbaa !5
  br label %88

88:                                               ; preds = %87, %38
  %89 = phi i32 [ %39, %38 ], [ 0, %87 ]
  %90 = add nuw nsw i64 %32, 2
  %91 = add i64 %33, -2
  %92 = icmp eq i64 %91, 0
  br i1 %92, label %44, label %30, !llvm.loop !13
}

; Function Attrs: argmemonly mustprogress nofree nosync nounwind willreturn
declare void @llvm.lifetime.start.p0i8(i64 immarg, i8* nocapture) #4

declare nonnull align 8 dereferenceable(16) %"class.std::basic_istream"* @_ZNSirsERi(%"class.std::basic_istream"* nonnull align 8 dereferenceable(16), i32* nonnull align 4 dereferenceable(4)) local_unnamed_addr #0

declare nonnull align 8 dereferenceable(8) %"class.std::basic_ostream"* @_ZNSolsEi(%"class.std::basic_ostream"* nonnull align 8 dereferenceable(8), i32) local_unnamed_addr #0

; Function Attrs: argmemonly mustprogress nofree nosync nounwind willreturn
declare void @llvm.lifetime.end.p0i8(i64 immarg, i8* nocapture) #4

declare nonnull align 8 dereferenceable(8) %"class.std::basic_ostream"* @_ZSt16__ostream_insertIcSt11char_traitsIcEERSt13basic_ostreamIT_T0_ES6_PKS3_l(%"class.std::basic_ostream"* nonnull align 8 dereferenceable(8), i8*, i64) local_unnamed_addr #0

; Function Attrs: sspstrong uwtable
define internal void @_GLOBAL__sub_I_77.cpp() #5 section ".text.startup" {
  tail call void @_ZNSt8ios_base4InitC1Ev(%"class.std::ios_base::Init"* nonnull align 1 dereferenceable(1) @_ZStL8__ioinit)
  %1 = tail call i32 @__cxa_atexit(void (i8*)* bitcast (void (%"class.std::ios_base::Init"*)* @_ZNSt8ios_base4InitD1Ev to void (i8*)*), i8* getelementptr inbounds (%"class.std::ios_base::Init", %"class.std::ios_base::Init"* @_ZStL8__ioinit, i64 0, i32 0), i8* nonnull @__dso_handle) #6
  ret void
}


!llvm.module.flags = !{!0, !1, !2, !3}
!llvm.ident = !{!4}

!0 = !{i32 1, !"wchar_size", i32 4}
!1 = !{i32 7, !"PIC Level", i32 2}
!2 = !{i32 7, !"PIE Level", i32 2}
!3 = !{i32 7, !"uwtable", i32 1}
!4 = !{!"clang version 13.0.0"}
!5 = !{!6, !6, i64 0}
!6 = !{!"int", !7, i64 0}
!7 = !{!"omnipotent char", !8, i64 0}
!8 = !{!"Simple C++ TBAA"}
!9 = distinct !{!9, !10}
!10 = !{!"llvm.loop.mustprogress"}
!11 = distinct !{!11, !10}
!12 = distinct !{!12, !10}
!13 = distinct !{!13, !10}
